(dp0
cnumpy.core.multiarray
scalar
p1
(cnumpy
dtype
p2
(S'i8'
p3
I0
I1
tp4
Rp5
(I3
S'<'
p6
NNNI-1
I-1
I0
tp7
bS'\x00\x00\x00\x00\x00\x00\x00\x00'
p8
tp9
Rp10
(dp11
S'salary'
p12
F201955.0
sS'to_messages'
p13
F2902.0
sS'from_poi_ratio'
p14
F0.016195727084769126
sS'exp_sal_ratio'
p15
F0.06866876284320765
sS'total_payments'
p16
F4484442.0
sS'shared_poi_ratio'
p17
F0.4848380427291523
sS'bonus'
p18
F4175000.0
sS'total_stock_value'
p19
F1729541.0
sS'expenses'
p20
F13868.0
sS'exercised_stock_options'
p21
F1729541.0
sS'from_messages'
p22
F2195.0
sS'other'
p23
F152.0
sS'from_this_person_to_poi'
p24
F65.0
sS'to_poi_ratio'
p25
F0.029612756264236904
sS'poi'
p26
F0.0
sS'shared_receipt_with_poi'
p27
F1407.0
sS'restricted_stock'
p28
F126027.0
sS'from_poi_to_this_person'
p29
F47.0
ssg1
(g5
S'\x01\x00\x00\x00\x00\x00\x00\x00'
p30
tp31
Rp32
(dp33
g12
F0.0
sg13
F0.0
sg14
F0.0
sg15
F0.0
sg16
F182466.0
sg17
F0.0
sg18
F0.0
sg19
F257817.0
sg20
F3486.0
sg21
F257817.0
sg22
F0.0
sg23
F0.0
sg24
F0.0
sg25
F0.0
sg26
F0.0
sg27
F0.0
sg28
F0.0
sg29
F0.0
ssg1
(g5
S'\x02\x00\x00\x00\x00\x00\x00\x00'
p34
tp35
Rp36
(dp37
g12
F477.0
sg13
F566.0
sg14
F0.06890459363957598
sg15
F118.03144654088051
sg16
F916197.0
sg17
F0.8215547703180212
sg18
F0.0
sg19
F5243487.0
sg20
F56301.0
sg21
F4046157.0
sg22
F29.0
sg23
F864523.0
sg24
F0.0
sg25
F0.0
sg26
F0.0
sg27
F465.0
sg28
F1757552.0
sg29
F39.0
ssg1
(g5
S'\x03\x00\x00\x00\x00\x00\x00\x00'
p38
tp39
Rp40
(dp41
g12
F267102.0
sg13
F0.0
sg14
F0.0
sg15
F0.041931546749930736
sg16
F5634343.0
sg17
F0.0
sg18
F1200000.0
sg19
F10623258.0
sg20
F11200.0
sg21
F6680544.0
sg22
F0.0
sg23
F2660303.0
sg24
F0.0
sg25
F0.0
sg26
F0.0
sg27
F0.0
sg28
F3942714.0
sg29
F0.0
ssg1
(g5
S'\x04\x00\x00\x00\x00\x00\x00\x00'
p42
tp43
Rp44
(dp45
g12
F239671.0
sg13
F0.0
sg14
F0.0
sg15
F0.5388303132210405
sg16
F827696.0
sg17
F0.0
sg18
F400000.0
sg19
F63014.0
sg20
F129142.0
sg21
F0.0
sg22
F0.0
sg23
F69.0
sg24
F0.0
sg25
F0.0
sg26
F0.0
sg27
F0.0
sg28
F145796.0
sg29
F0.0
ssg1
(g5
S'\x05\x00\x00\x00\x00\x00\x00\x00'
p46
tp47
Rp48
(dp49
g12
F80818.0
sg13
F0.0
sg14
F0.0
sg15
F0.0
sg16
F860136.0
sg17
F0.0
sg18
F0.0
sg19
F1599641.0
sg20
F0.0
sg21
F1599641.0
sg22
F0.0
sg23
F874.0
sg24
F0.0
sg25
F0.0
sg26
F0.0
sg27
F0.0
sg28
F0.0
sg29
F0.0
ssg1
(g5
S'\x06\x00\x00\x00\x00\x00\x00\x00'
p50
tp51
Rp52
(dp53
g12
F231330.0
sg13
F7315.0
sg14
F0.01968557758031442
sg15
F0.1606881943543855
sg16
F969068.0
sg17
F0.36076555023923446
sg18
F700000.0
sg19
F126027.0
sg20
F37172.0
sg21
F0.0
sg22
F4343.0
sg23
F566.0
sg24
F386.0
sg25
F0.08887865530739121
sg26
F0.0
sg27
F2639.0
sg28
F126027.0
sg29
F144.0
ssg1
(g5
S'\x07\x00\x00\x00\x00\x00\x00\x00'
p54
tp55
Rp56
(dp57
g12
F213999.0
sg13
F7991.0
sg14
F0.028532098610937303
sg15
F0.08109850980612059
sg16
F5501630.0
sg17
F0.6909022650481792
sg18
F5249999.0
sg19
F1110705.0
sg20
F17355.0
sg21
F953136.0
sg22
F484.0
sg23
F210698.0
sg24
F108.0
sg25
F0.2231404958677686
sg26
F1.0
sg27
F5521.0
sg28
F157569.0
sg29
F228.0
ssg1
(g5
S'\x08\x00\x00\x00\x00\x00\x00\x00'
p58
tp59
Rp60
(dp61
g12
F216582.0
sg13
F0.0
sg14
F0.0
sg15
F0.054907610050696734
sg16
F228474.0
sg17
F0.0
sg18
F0.0
sg19
F2493616.0
sg20
F11892.0
sg21
F1624396.0
sg22
F0.0
sg23
F0.0
sg24
F0.0
sg25
F0.0
sg26
F0.0
sg27
F0.0
sg28
F869220.0
sg29
F0.0
ssg1
(g5
S'\t\x00\x00\x00\x00\x00\x00\x00'
p62
tp63
Rp64
(dp65
g12
F187922.0
sg13
F383.0
sg14
F0.010443864229765013
sg15
F0.3148912846819425
sg16
F618850.0
sg17
F0.608355091383812
sg18
F250000.0
sg19
F659249.0
sg20
F59175.0
sg21
F0.0
sg22
F59.0
sg23
F427316.0
sg24
F0.0
sg25
F0.0
sg26
F0.0
sg27
F233.0
sg28
F659249.0
sg29
F4.0
ssg1
(g5
S'\n\x00\x00\x00\x00\x00\x00\x00'
p66
tp67
Rp68
(dp69
g12
F213625.0
sg13
F1607.0
sg14
F0.01431238332296204
sg15
F0.1804985371562317
sg16
F2047593.0
sg17
F0.8313627878033603
sg18
F1000000.0
sg19
F1843816.0
sg20
F38559.0
sg21
F1465734.0
sg22
F40.0
sg23
F425688.0
sg24
F8.0
sg25
F0.2
sg26
F0.0
sg27
F1336.0
sg28
F378082.0
sg29
F23.0
ssg1
(g5
S'\x0b\x00\x00\x00\x00\x00\x00\x00'
p70
tp71
Rp72
(dp73
g12
F248546.0
sg13
F2475.0
sg14
F0.010101010101010102
sg15
F0.3388024751957384
sg16
F2014835.0
sg17
F0.9397979797979797
sg18
F850000.0
sg19
F954354.0
sg20
F84208.0
sg21
F765313.0
sg22
F14.0
sg23
F272.0
sg24
F2.0
sg25
F0.14285714285714285
sg26
F0.0
sg27
F2326.0
sg28
F189041.0
sg29
F25.0
ssg1
(g5
S'\x0c\x00\x00\x00\x00\x00\x00\x00'
p74
tp75
Rp76
(dp77
g12
F0.0
sg13
F0.0
sg14
F0.0
sg15
F0.0
sg16
F1279.0
sg17
F0.0
sg18
F0.0
sg19
F0.0
sg20
F1279.0
sg21
F0.0
sg22
F0.0
sg23
F0.0
sg24
F0.0
sg25
F0.0
sg26
F0.0
sg27
F0.0
sg28
F0.0
sg29
F0.0
ssg1
(g5
S'\r\x00\x00\x00\x00\x00\x00\x00'
p78
tp79
Rp80
(dp81
g12
F278601.0
sg13
F1858.0
sg14
F0.07534983853606028
sg15
F0.2365641185781817
sg16
F2669589.0
sg17
F0.8573735199138859
sg18
F1350000.0
sg19
F252055.0
sg20
F65907.0
sg21
F0.0
sg22
F27.0
sg23
F1621.0
sg24
F15.0
sg25
F0.5555555555555556
sg26
F1.0
sg27
F1593.0
sg28
F252055.0
sg29
F140.0
ssg1
(g5
S'\x0e\x00\x00\x00\x00\x00\x00\x00'
p82
tp83
Rp84
(dp85
g12
F0.0
sg13
F1486.0
sg14
F0.008748317631224764
sg15
F0.0
sg16
F49288.0
sg17
F0.5121130551816958
sg18
F0.0
sg19
F0.0
sg20
F49288.0
sg21
F0.0
sg22
F41.0
sg23
F0.0
sg24
F1.0
sg25
F0.024390243902439025
sg26
F0.0
sg27
F761.0
sg28
F0.0
sg29
F13.0
ssg1
(g5
S'\x0f\x00\x00\x00\x00\x00\x00\x00'
p86
tp87
Rp88
(dp89
g12
F248017.0
sg13
F1088.0
sg14
F0.0
sg15
F0.0024191890072051514
sg16
F1054637.0
sg17
F0.021139705882352942
sg18
F500000.0
sg19
F1014505.0
sg20
F600.0
sg21
F825464.0
sg22
F125.0
sg23
F1215.0
sg24
F0.0
sg25
F0.0
sg26
F0.0
sg27
F23.0
sg28
F189041.0
sg29
F0.0
ssg1
(g5
S'\x10\x00\x00\x00\x00\x00\x00\x00'
p90
tp91
Rp92
(dp93
g12
F261516.0
sg13
F0.0
sg14
F0.0
sg15
F0.035982502026644644
sg16
F1271582.0
sg17
F0.0
sg18
F750000.0
sg19
F417619.0
sg20
F9410.0
sg21
F0.0
sg22
F0.0
sg23
F150656.0
sg24
F0.0
sg25
F0.0
sg26
F0.0
sg27
F0.0
sg28
F417619.0
sg29
F0.0
ssg1
(g5
S'\x11\x00\x00\x00\x00\x00\x00\x00'
p94
tp95
Rp96
(dp97
g12
F330546.0
sg13
F3523.0
sg14
F0.04428044280442804
sg15
F0.0
sg16
F2355702.0
sg17
F0.6622196991200682
sg18
F900000.0
sg19
F3444470.0
sg20
F0.0
sg21
F2542813.0
sg22
F1053.0
sg23
F400572.0
sg24
F71.0
sg25
F0.06742640075973409
sg26
F0.0
sg27
F2333.0
sg28
F901657.0
sg29
F156.0
ssg1
(g5
S'\x12\x00\x00\x00\x00\x00\x00\x00'
p98
tp99
Rp100
(dp101
g12
F240189.0
sg13
F2598.0
sg14
F0.07659738260200154
sg15
F0.14912423133449076
sg16
F1639297.0
sg17
F0.8421862971516552
sg18
F1250000.0
sg19
F126027.0
sg20
F35818.0
sg21
F0.0
sg22
F144.0
sg23
F486.0
sg24
F25.0
sg25
F0.1736111111111111
sg26
F1.0
sg27
F2188.0
sg28
F126027.0
sg29
F199.0
ssg1
(g5
S'\x13\x00\x00\x00\x00\x00\x00\x00'
p102
tp103
Rp104
(dp105
g12
F261809.0
sg13
F312.0
sg14
F0.09294871794871795
sg15
F0.0
sg16
F477557.0
sg17
F0.6282051282051282
sg18
F300000.0
sg19
F0.0
sg20
F0.0
sg21
F0.0
sg22
F15.0
sg23
F540.0
sg24
F7.0
sg25
F0.4666666666666667
sg26
F0.0
sg27
F196.0
sg28
F307301.0
sg29
F29.0
ssg1
(g5
S'\x14\x00\x00\x00\x00\x00\x00\x00'
p106
tp107
Rp108
(dp109
g12
F415189.0
sg13
F1892.0
sg14
F0.0306553911205074
sg15
F0.07387960663697737
sg16
F1868758.0
sg17
F0.837737843551797
sg18
F1000000.0
sg19
F2502063.0
sg20
F30674.0
sg21
F0.0
sg22
F49.0
sg23
F307895.0
sg24
F12.0
sg25
F0.24489795918367346
sg26
F1.0
sg27
F1585.0
sg28
F2502063.0
sg29
F58.0
ssg1
(g5
S'\x15\x00\x00\x00\x00\x00\x00\x00'
p110
tp111
Rp112
(dp113
g12
F0.0
sg13
F0.0
sg14
F0.0
sg15
F0.0
sg16
F0.0
sg17
F0.0
sg18
F0.0
sg19
F0.0
sg20
F0.0
sg21
F0.0
sg22
F0.0
sg23
F0.0
sg24
F0.0
sg25
F0.0
sg26
F0.0
sg27
F0.0
sg28
F32460.0
sg29
F0.0
ssg1
(g5
S'\x16\x00\x00\x00\x00\x00\x00\x00'
p114
tp115
Rp116
(dp117
g12
F0.0
sg13
F0.0
sg14
F0.0
sg15
F0.0
sg16
F0.0
sg17
F0.0
sg18
F0.0
sg19
F6077885.0
sg20
F0.0
sg21
F5127155.0
sg22
F0.0
sg23
F0.0
sg24
F0.0
sg25
F0.0
sg26
F0.0
sg27
F0.0
sg28
F950730.0
sg29
F0.0
ssg1
(g5
S'\x17\x00\x00\x00\x00\x00\x00\x00'
p118
tp119
Rp120
(dp121
g12
F0.0
sg13
F0.0
sg14
F0.0
sg15
F0.0
sg16
F0.0
sg17
F0.0
sg18
F0.0
sg19
F189518.0
sg20
F0.0
sg21
F0.0
sg22
F0.0
sg23
F0.0
sg24
F0.0
sg25
F0.0
sg26
F0.0
sg27
F0.0
sg28
F662086.0
sg29
F0.0
ssg1
(g5
S'\x18\x00\x00\x00\x00\x00\x00\x00'
p122
tp123
Rp124
(dp125
g12
F288542.0
sg13
F1758.0
sg14
F0.13651877133105803
sg15
F0.05723256926201385
sg16
F1490344.0
sg17
F0.6439135381114903
sg18
F1200000.0
sg19
F698242.0
sg20
F16514.0
sg21
F0.0
sg22
F40.0
sg23
F101740.0
sg24
F11.0
sg25
F0.275
sg26
F1.0
sg27
F1132.0
sg28
F698242.0
sg29
F240.0
ssg1
(g5
S'\x19\x00\x00\x00\x00\x00\x00\x00'
p126
tp127
Rp128
(dp129
g12
F0.0
sg13
F764.0
sg14
F0.013089005235602094
sg15
F0.0
sg16
F0.0
sg17
F0.07591623036649214
sg18
F0.0
sg19
F1038185.0
sg20
F0.0
sg21
F651850.0
sg22
F12.0
sg23
F0.0
sg24
F0.0
sg25
F0.0
sg26
F0.0
sg27
F58.0
sg28
F386335.0
sg29
F10.0
ssg1
(g5
S'\x1a\x00\x00\x00\x00\x00\x00\x00'
p130
tp131
Rp132
(dp133
g12
F314288.0
sg13
F102.0
sg14
F0.0
sg15
F0.08864799165096982
sg16
F1101393.0
sg17
F0.696078431372549
sg18
F800000.0
sg19
F495633.0
sg20
F27861.0
sg21
F117551.0
sg22
F33.0
sg23
F494.0
sg24
F4.0
sg25
F0.12121212121212122
sg26
F0.0
sg27
F71.0
sg28
F378082.0
sg29
F0.0
ssg1
(g5
S'\x1b\x00\x00\x00\x00\x00\x00\x00'
p134
tp135
Rp136
(dp137
g12
F184899.0
sg13
F0.0
sg14
F0.0
sg15
F0.12084435286291435
sg16
F807956.0
sg17
F0.0
sg18
F325000.0
sg19
F207940.0
sg20
F22344.0
sg21
F0.0
sg22
F0.0
sg23
F713.0
sg24
F0.0
sg25
F0.0
sg26
F0.0
sg27
F0.0
sg28
F207940.0
sg29
F0.0
ssg1
(g5
S'\x1c\x00\x00\x00\x00\x00\x00\x00'
p138
tp139
Rp140
(dp141
g12
F206121.0
sg13
F714.0
sg14
F0.16106442577030813
sg15
F0.20194934043595753
sg16
F1208649.0
sg17
F0.773109243697479
sg18
F600000.0
sg19
F159211.0
sg20
F41626.0
sg21
F17378.0
sg22
F74.0
sg23
F25553.0
sg24
F4.0
sg25
F0.05405405405405406
sg26
F0.0
sg27
F552.0
sg28
F141833.0
sg29
F115.0
ssg1
(g5
S'\x1d\x00\x00\x00\x00\x00\x00\x00'
p142
tp143
Rp144
(dp145
g12
F365163.0
sg13
F3093.0
sg14
F0.02133850630455868
sg15
F0.23598776436824104
sg16
F4747979.0
sg17
F0.6779825412221144
sg18
F3000000.0
sg19
F3614261.0
sg20
F86174.0
sg21
F2291113.0
sg22
F3069.0
sg23
F1661.0
sg24
F609.0
sg25
F0.198435972629521
sg26
F1.0
sg27
F2097.0
sg28
F1323148.0
sg29
F66.0
ssg1
(g5
S'\x1e\x00\x00\x00\x00\x00\x00\x00'
p146
tp147
Rp148
(dp149
g12
F492375.0
sg13
F2181.0
sg14
F0.029344337459880788
sg15
F0.10383142929677583
sg16
F550981.0
sg17
F0.6423658872077029
sg18
F800000.0
sg19
F8831913.0
sg20
F51124.0
sg21
F8831913.0
sg22
F909.0
sg23
F7482.0
sg24
F20.0
sg25
F0.022002200220022004
sg26
F0.0
sg27
F1401.0
sg28
F1787380.0
sg29
F64.0
ssg1
(g5
S'\x1f\x00\x00\x00\x00\x00\x00\x00'
p150
tp151
Rp152
(dp153
g12
F210500.0
sg13
F0.0
sg14
F0.0
sg15
F0.24824228028503562
sg16
F1204583.0
sg17
F0.0
sg18
F425000.0
sg19
F2027865.0
sg20
F52255.0
sg21
F2027865.0
sg22
F0.0
sg23
F1105.0
sg24
F0.0
sg25
F0.0
sg26
F0.0
sg27
F0.0
sg28
F315068.0
sg29
F0.0
ssg1
(g5
S' \x00\x00\x00\x00\x00\x00\x00'
p154
tp155
Rp156
(dp157
g12
F250100.0
sg13
F2572.0
sg14
F0.11858475894245724
sg15
F0.013894442223110755
sg16
F1410464.0
sg17
F0.73950233281493
sg18
F600000.0
sg19
F1865087.0
sg20
F3475.0
sg21
F1550019.0
sg22
F63.0
sg23
F473.0
sg24
F14.0
sg25
F0.2222222222222222
sg26
F0.0
sg27
F1902.0
sg28
F315068.0
sg29
F305.0
ssg1
(g5
S'!\x00\x00\x00\x00\x00\x00\x00'
p158
tp159
Rp160
(dp161
g12
F262788.0
sg13
F0.0
sg14
F0.0
sg15
F0.13627715116367567
sg16
F2368151.0
sg17
F0.0
sg18
F1000000.0
sg19
F8317782.0
sg20
F35812.0
sg21
F8191755.0
sg22
F0.0
sg23
F374689.0
sg24
F0.0
sg25
F0.0
sg26
F0.0
sg27
F0.0
sg28
F126027.0
sg29
F0.0
ssg1
(g5
S'"\x00\x00\x00\x00\x00\x00\x00'
p162
tp163
Rp164
(dp165
g12
F221003.0
sg13
F176.0
sg14
F0.056818181818181816
sg15
F0.12743718411062294
sg16
F319941.0
sg17
F0.6477272727272727
sg18
F70000.0
sg19
F0.0
sg20
F28164.0
sg21
F0.0
sg22
F14.0
sg23
F774.0
sg24
F3.0
sg25
F0.21428571428571427
sg26
F0.0
sg27
F114.0
sg28
F0.0
sg29
F10.0
ssg1
(g5
S'#\x00\x00\x00\x00\x00\x00\x00'
p166
tp167
Rp168
(dp169
g12
F278601.0
sg13
F865.0
sg14
F0.21734104046242775
sg15
F0.34554075541724544
sg16
F875760.0
sg17
F0.892485549132948
sg18
F800000.0
sg19
F1080988.0
sg20
F96268.0
sg21
F765920.0
sg22
F22.0
sg23
F891.0
sg24
F11.0
sg25
F0.5
sg26
F0.0
sg27
F772.0
sg28
F315068.0
sg29
F188.0
ssg1
(g5
S'$\x00\x00\x00\x00\x00\x00\x00'
p170
tp171
Rp172
(dp173
g12
F0.0
sg13
F0.0
sg14
F0.0
sg15
F0.0
sg16
F77492.0
sg17
F0.0
sg18
F0.0
sg19
F371750.0
sg20
F0.0
sg21
F371750.0
sg22
F0.0
sg23
F0.0
sg24
F0.0
sg25
F0.0
sg26
F0.0
sg27
F0.0
sg28
F0.0
sg29
F0.0
ssg1
(g5
S'%\x00\x00\x00\x00\x00\x00\x00'
p174
tp175
Rp176
(dp177
g12
F210692.0
sg13
F904.0
sg14
F0.1172566371681416
sg15
F0.1223824350236364
sg16
F2093263.0
sg17
F0.6626106194690266
sg18
F750000.0
sg19
F1640910.0
sg20
F25785.0
sg21
F1451869.0
sg22
F12.0
sg23
F1568.0
sg24
F3.0
sg25
F0.25
sg26
F0.0
sg27
F599.0
sg28
F189041.0
sg29
F106.0
ssg1
(g5
S'&\x00\x00\x00\x00\x00\x00\x00'
p178
tp179
Rp180
(dp181
g12
F182245.0
sg13
F0.0
sg14
F0.0
sg15
F0.11813767181541332
sg16
F2692324.0
sg17
F0.0
sg18
F200000.0
sg19
F1008941.0
sg20
F21530.0
sg21
F601438.0
sg22
F0.0
sg23
F53775.0
sg24
F0.0
sg25
F0.0
sg26
F0.0
sg27
F0.0
sg28
F407503.0
sg29
F0.0
ssg1
(g5
S"'\x00\x00\x00\x00\x00\x00\x00"
p182
tp183
Rp184
(dp185
g12
F170941.0
sg13
F0.0
sg14
F0.0
sg15
F0.45952697129418923
sg16
F211725.0
sg17
F0.0
sg18
F350000.0
sg19
F6678735.0
sg20
F78552.0
sg21
F4890344.0
sg22
F0.0
sg23
F12961.0
sg24
F0.0
sg25
F0.0
sg26
F0.0
sg27
F0.0
sg28
F1788391.0
sg29
F0.0
ssg1
(g5
S'(\x00\x00\x00\x00\x00\x00\x00'
p186
tp187
Rp188
(dp189
g12
F304588.0
sg13
F1755.0
sg14
F0.023931623931623933
sg15
F0.31493033212076643
sg16
F3676340.0
sg17
F0.913960113960114
sg18
F2500000.0
sg19
F2332399.0
sg20
F95924.0
sg21
F940257.0
sg22
F75.0
sg23
F401481.0
sg24
F37.0
sg25
F0.49333333333333335
sg26
F0.0
sg27
F1604.0
sg28
F1392142.0
sg29
F42.0
ssg1
(g5
S')\x00\x00\x00\x00\x00\x00\x00'
p190
tp191
Rp192
(dp193
g12
F440698.0
sg13
F0.0
sg14
F0.0
sg15
F0.12689188514583682
sg16
F2424083.0
sg17
F0.0
sg18
F1300000.0
sg19
F1794412.0
sg20
F55921.0
sg21
F0.0
sg22
F0.0
sg23
F277464.0
sg24
F0.0
sg25
F0.0
sg26
F1.0
sg27
F0.0
sg28
F1794412.0
sg29
F0.0
ssg1
(g5
S'*\x00\x00\x00\x00\x00\x00\x00'
p194
tp195
Rp196
(dp197
g12
F199157.0
sg13
F936.0
sg14
F0.0010683760683760685
sg15
F0.11985518962426628
sg16
F1414857.0
sg17
F0.7724358974358975
sg18
F350000.0
sg19
F1621236.0
sg20
F23870.0
sg21
F664461.0
sg22
F16.0
sg23
F285414.0
sg24
F8.0
sg25
F0.5
sg26
F0.0
sg27
F723.0
sg28
F956775.0
sg29
F1.0
ssg1
(g5
S'+\x00\x00\x00\x00\x00\x00\x00'
p198
tp199
Rp200
(dp201
g12
F0.0
sg13
F517.0
sg14
F0.0
sg15
F0.0
sg16
F0.0
sg17
F0.019342359767891684
sg18
F0.0
sg19
F1884748.0
sg20
F0.0
sg21
F1324578.0
sg22
F36.0
sg23
F0.0
sg24
F0.0
sg25
F0.0
sg26
F0.0
sg27
F10.0
sg28
F560170.0
sg29
F0.0
ssg1
(g5
S',\x00\x00\x00\x00\x00\x00\x00'
p202
tp203
Rp204
(dp205
g12
F0.0
sg13
F57.0
sg14
F0.0
sg15
F0.0
sg16
F181755.0
sg17
F0.03508771929824561
sg18
F0.0
sg19
F343434.0
sg20
F0.0
sg21
F343434.0
sg22
F13.0
sg23
F0.0
sg24
F0.0
sg25
F0.0
sg26
F0.0
sg27
F2.0
sg28
F0.0
sg29
F0.0
ssg1
(g5
S'-\x00\x00\x00\x00\x00\x00\x00'
p206
tp207
Rp208
(dp209
g12
F1060932.0
sg13
F3275.0
sg14
F0.07389312977099237
sg15
F0.0819911172440835
sg16
F17252530.0
sg17
F0.909618320610687
sg18
F2000000.0
sg19
F14622185.0
sg20
F86987.0
sg21
F10433518.0
sg22
F21.0
sg23
F7427621.0
sg24
F6.0
sg25
F0.2857142857142857
sg26
F0.0
sg27
F2979.0
sg28
F4188667.0
sg29
F242.0
ssg1
(g5
S'.\x00\x00\x00\x00\x00\x00\x00'
p210
tp211
Rp212
(dp213
g12
F0.0
sg13
F0.0
sg14
F0.0
sg15
F0.0
sg16
F50591.0
sg17
F0.0
sg18
F0.0
sg19
F176378.0
sg20
F0.0
sg21
F176378.0
sg22
F0.0
sg23
F0.0
sg24
F0.0
sg25
F0.0
sg26
F0.0
sg27
F0.0
sg28
F0.0
sg29
F0.0
ssg1
(g5
S'/\x00\x00\x00\x00\x00\x00\x00'
p214
tp215
Rp216
(dp217
g12
F192008.0
sg13
F0.0
sg14
F0.0
sg15
F0.26082246573059453
sg16
F900585.0
sg17
F0.0
sg18
F509870.0
sg19
F318607.0
sg20
F50080.0
sg21
F83237.0
sg22
F0.0
sg23
F76547.0
sg24
F0.0
sg25
F0.0
sg26
F0.0
sg27
F0.0
sg28
F235370.0
sg29
F0.0
ssg1
(g5
S'0\x00\x00\x00\x00\x00\x00\x00'
p218
tp219
Rp220
(dp221
g12
F231946.0
sg13
F209.0
sg14
F0.04784688995215311
sg15
F0.20869081596578515
sg16
F1566469.0
sg17
F0.8516746411483254
sg18
F850000.0
sg19
F896153.0
sg20
F48405.0
sg21
F636246.0
sg22
F44.0
sg23
F60814.0
sg24
F27.0
sg25
F0.6136363636363636
sg26
F0.0
sg27
F178.0
sg28
F259907.0
sg29
F10.0
ssg1
(g5
S'1\x00\x00\x00\x00\x00\x00\x00'
p222
tp223
Rp224
(dp225
g12
F0.0
sg13
F0.0
sg14
F0.0
sg15
F0.0
sg16
F0.0
sg17
F0.0
sg18
F0.0
sg19
F1945360.0
sg20
F0.0
sg21
F1753766.0
sg22
F0.0
sg23
F0.0
sg24
F0.0
sg25
F0.0
sg26
F0.0
sg27
F0.0
sg28
F264013.0
sg29
F0.0
ssg1
(g5
S'2\x00\x00\x00\x00\x00\x00\x00'
p226
tp227
Rp228
(dp229
g12
F0.0
sg13
F169.0
sg14
F0.0
sg15
F0.0
sg16
F966522.0
sg17
F0.13609467455621302
sg18
F0.0
sg19
F2218275.0
sg20
F0.0
sg21
F2218275.0
sg22
F12.0
sg23
F0.0
sg24
F0.0
sg25
F0.0
sg26
F0.0
sg27
F23.0
sg28
F0.0
sg29
F0.0
ssg1
(g5
S'3\x00\x00\x00\x00\x00\x00\x00'
p230
tp231
Rp232
(dp233
g12
F0.0
sg13
F0.0
sg14
F0.0
sg15
F0.0
sg16
F0.0
sg17
F0.0
sg18
F0.0
sg19
F85641.0
sg20
F0.0
sg21
F9803.0
sg22
F0.0
sg23
F0.0
sg24
F0.0
sg25
F0.0
sg26
F0.0
sg27
F0.0
sg28
F75838.0
sg29
F0.0
ssg1
(g5
S'4\x00\x00\x00\x00\x00\x00\x00'
p234
tp235
Rp236
(dp237
g12
F274975.0
sg13
F873.0
sg14
F0.05956471935853379
sg15
F0.45814346758796254
sg16
F1272284.0
sg17
F1.0011454753722795
sg18
F600000.0
sg19
F778546.0
sg20
F125978.0
sg21
F384728.0
sg22
F16.0
sg23
F200308.0
sg24
F6.0
sg25
F0.375
sg26
F1.0
sg27
F874.0
sg28
F393818.0
sg29
F52.0
ssg1
(g5
S'5\x00\x00\x00\x00\x00\x00\x00'
p238
tp239
Rp240
(dp241
g12
F272880.0
sg13
F0.0
sg14
F0.0
sg15
F0.0
sg16
F2146973.0
sg17
F0.0
sg18
F750000.0
sg19
F877611.0
sg20
F0.0
sg21
F436515.0
sg22
F0.0
sg23
F819288.0
sg24
F0.0
sg25
F0.0
sg26
F0.0
sg27
F0.0
sg28
F441096.0
sg29
F0.0
ssg1
(g5
S'6\x00\x00\x00\x00\x00\x00\x00'
p242
tp243
Rp244
(dp245
g12
F0.0
sg13
F0.0
sg14
F0.0
sg15
F0.0
sg16
F119292.0
sg17
F0.0
sg18
F0.0
sg19
F0.0
sg20
F0.0
sg21
F0.0
sg22
F0.0
sg23
F0.0
sg24
F0.0
sg25
F0.0
sg26
F0.0
sg27
F0.0
sg28
F0.0
sg29
F0.0
ssg1
(g5
S'7\x00\x00\x00\x00\x00\x00\x00'
p246
tp247
Rp248
(dp249
g12
F6615.0
sg13
F0.0
sg14
F0.0
sg15
F0.0
sg16
F1146658.0
sg17
F0.0
sg18
F0.0
sg19
F0.0
sg20
F0.0
sg21
F0.0
sg22
F0.0
sg23
F680833.0
sg24
F0.0
sg25
F0.0
sg26
F0.0
sg27
F0.0
sg28
F0.0
sg29
F0.0
ssg1
(g5
S'8\x00\x00\x00\x00\x00\x00\x00'
p250
tp251
Rp252
(dp253
g12
F374125.0
sg13
F4009.0
sg14
F0.04489897730107259
sg15
F0.2035923822251921
sg16
F3859065.0
sg17
F0.4607133948615615
sg18
F1150000.0
sg19
F803094.0
sg20
F76169.0
sg21
F608750.0
sg22
F1941.0
sg23
F52382.0
sg24
F61.0
sg25
F0.03142709943328181
sg26
F0.0
sg27
F1847.0
sg28
F524169.0
sg29
F180.0
ssg1
(g5
S'9\x00\x00\x00\x00\x00\x00\x00'
p254
tp255
Rp256
(dp257
g12
F243293.0
sg13
F1045.0
sg14
F0.03062200956937799
sg15
F0.1399094918472788
sg16
F288682.0
sg17
F0.9904306220095693
sg18
F1500000.0
sg19
F6391065.0
sg20
F34039.0
sg21
F5538001.0
sg22
F32.0
sg23
F11350.0
sg24
F21.0
sg25
F0.65625
sg26
F1.0
sg27
F1035.0
sg28
F853064.0
sg29
F32.0
ssg1
(g5
S':\x00\x00\x00\x00\x00\x00\x00'
p258
tp259
Rp260
(dp261
g12
F0.0
sg13
F573.0
sg14
F0.006980802792321117
sg15
F0.0
sg16
F475.0
sg17
F0.8219895287958116
sg18
F0.0
sg19
F2217299.0
sg20
F475.0
sg21
F0.0
sg22
F19.0
sg23
F0.0
sg24
F7.0
sg25
F0.3684210526315789
sg26
F0.0
sg27
F471.0
sg28
F2217299.0
sg29
F4.0
ssg1
(g5
S';\x00\x00\x00\x00\x00\x00\x00'
p262
tp263
Rp264
(dp265
g12
F0.0
sg13
F504.0
sg14
F0.031746031746031744
sg15
F0.0
sg16
F7961.0
sg17
F0.0992063492063492
sg18
F0.0
sg19
F151418.0
sg20
F0.0
sg21
F0.0
sg22
F12.0
sg23
F0.0
sg24
F0.0
sg25
F0.0
sg26
F0.0
sg27
F50.0
sg28
F151418.0
sg29
F16.0
ssg1
(g5
S'<\x00\x00\x00\x00\x00\x00\x00'
p266
tp267
Rp268
(dp269
g12
F0.0
sg13
F2649.0
sg14
F0.01321253303133258
sg15
F0.0
sg16
F0.0
sg17
F0.21555303888259722
sg18
F0.0
sg19
F346663.0
sg20
F0.0
sg21
F0.0
sg22
F1061.0
sg23
F0.0
sg24
F38.0
sg25
F0.03581526861451461
sg26
F0.0
sg27
F571.0
sg28
F346663.0
sg29
F35.0
ssg1
(g5
S'=\x00\x00\x00\x00\x00\x00\x00'
p270
tp271
Rp272
(dp273
g12
F262663.0
sg13
F0.0
sg14
F0.0
sg15
F0.1841028237703826
sg16
F1297461.0
sg17
F0.0
sg18
F700000.0
sg19
F668132.0
sg20
F48357.0
sg21
F187500.0
sg22
F0.0
sg23
F416441.0
sg24
F0.0
sg25
F0.0
sg26
F0.0
sg27
F0.0
sg28
F480632.0
sg29
F0.0
ssg1
(g5
S'>\x00\x00\x00\x00\x00\x00\x00'
p274
tp275
Rp276
(dp277
g12
F211788.0
sg13
F1320.0
sg14
F0.030303030303030304
sg15
F0.4667356035280564
sg16
F2081796.0
sg17
F0.6818181818181818
sg18
F1700000.0
sg19
F441096.0
sg20
F98849.0
sg21
F0.0
sg22
F27.0
sg23
F1936.0
sg24
F1.0
sg25
F0.037037037037037035
sg26
F0.0
sg27
F900.0
sg28
F441096.0
sg29
F40.0
ssg1
(g5
S'?\x00\x00\x00\x00\x00\x00\x00'
p278
tp279
Rp280
(dp281
g12
F0.0
sg13
F0.0
sg14
F0.0
sg15
F0.0
sg16
F91093.0
sg17
F0.0
sg18
F0.0
sg19
F30766064.0
sg20
F77978.0
sg21
F30766064.0
sg22
F0.0
sg23
F2856.0
sg24
F0.0
sg25
F0.0
sg26
F1.0
sg27
F0.0
sg28
F0.0
sg29
F0.0
ssg1
(g5
S'@\x00\x00\x00\x00\x00\x00\x00'
p282
tp283
Rp284
(dp285
g12
F0.0
sg13
F2350.0
sg14
F0.01872340425531915
sg15
F0.0
sg16
F3131860.0
sg17
F0.4570212765957447
sg18
F0.0
sg19
F7256648.0
sg20
F0.0
sg21
F5210569.0
sg22
F1073.0
sg23
F0.0
sg24
F15.0
sg25
F0.013979496738117428
sg26
F0.0
sg27
F1074.0
sg28
F2046079.0
sg29
F44.0
ssg1
(g5
S'A\x00\x00\x00\x00\x00\x00\x00'
p286
tp287
Rp288
(dp289
g12
F0.0
sg13
F719.0
sg14
F0.048678720445062586
sg15
F0.0
sg16
F0.0
sg17
F0.8191933240611962
sg18
F0.0
sg19
F1118394.0
sg20
F0.0
sg21
F754966.0
sg22
F34.0
sg23
F0.0
sg24
F5.0
sg25
F0.14705882352941177
sg26
F0.0
sg27
F589.0
sg28
F363428.0
sg29
F35.0
ssg1
(g5
S'B\x00\x00\x00\x00\x00\x00\x00'
p290
tp291
Rp292
(dp293
g12
F130724.0
sg13
F128.0
sg14
F0.078125
sg15
F0.038202625378660385
sg16
F3100224.0
sg17
F0.9296875
sg18
F0.0
sg19
F2282768.0
sg20
F4994.0
sg21
F2282768.0
sg22
F17.0
sg23
F0.0
sg24
F17.0
sg25
F1.0
sg26
F0.0
sg27
F119.0
sg28
F0.0
sg29
F10.0
ssg1
(g5
S'C\x00\x00\x00\x00\x00\x00\x00'
p294
tp295
Rp296
(dp297
g12
F85274.0
sg13
F496.0
sg14
F0.056451612903225805
sg15
F0.329443910218824
sg16
F1979596.0
sg17
F0.8810483870967742
sg18
F0.0
sg19
F5819980.0
sg20
F28093.0
sg21
F2165172.0
sg22
F19.0
sg23
F1553729.0
sg24
F5.0
sg25
F0.2631578947368421
sg26
F0.0
sg27
F437.0
sg28
F3654808.0
sg29
F28.0
ssg1
(g5
S'D\x00\x00\x00\x00\x00\x00\x00'
p298
tp299
Rp300
(dp301
g12
F288558.0
sg13
F258.0
sg14
F0.09689922480620156
sg15
F0.0352823349205359
sg16
F551174.0
sg17
F0.45348837209302323
sg18
F250000.0
sg19
F725735.0
sg20
F10181.0
sg21
F185063.0
sg22
F56.0
sg23
F2435.0
sg24
F19.0
sg25
F0.3392857142857143
sg26
F0.0
sg27
F117.0
sg28
F540672.0
sg29
F25.0
ssg1
(g5
S'E\x00\x00\x00\x00\x00\x00\x00'
p302
tp303
Rp304
(dp305
g12
F0.0
sg13
F0.0
sg14
F0.0
sg15
F0.0
sg16
F83750.0
sg17
F0.0
sg18
F0.0
sg19
F431750.0
sg20
F0.0
sg21
F431750.0
sg22
F0.0
sg23
F0.0
sg24
F0.0
sg25
F0.0
sg26
F0.0
sg27
F0.0
sg28
F44093.0
sg29
F0.0
ssg1
(g5
S'F\x00\x00\x00\x00\x00\x00\x00'
p306
tp307
Rp308
(dp309
g12
F275101.0
sg13
F4607.0
sg14
F0.008899500759713479
sg15
F0.3038338646533455
sg16
F1086821.0
sg17
F0.1265465595832429
sg18
F400000.0
sg19
F976037.0
sg20
F83585.0
sg21
F850010.0
sg22
F14368.0
sg23
F4669.0
sg24
F171.0
sg25
F0.011901447661469933
sg26
F0.0
sg27
F583.0
sg28
F126027.0
sg29
F41.0
ssg1
(g5
S'G\x00\x00\x00\x00\x00\x00\x00'
p310
tp311
Rp312
(dp313
g12
F404338.0
sg13
F12754.0
sg14
F0.010976948408342482
sg15
F0.10375725259560072
sg16
F1747522.0
sg17
F0.2853222518425592
sg18
F1000000.0
sg19
F6153642.0
sg20
F41953.0
sg21
F2022048.0
sg22
F6759.0
sg23
F1231.0
sg24
F387.0
sg25
F0.05725699067909454
sg26
F0.0
sg27
F3639.0
sg28
F4131594.0
sg29
F140.0
ssg1
(g5
S'H\x00\x00\x00\x00\x00\x00\x00'
p314
tp315
Rp316
(dp317
g12
F174246.0
sg13
F0.0
sg14
F0.0
sg15
F0.6676480378315715
sg16
F704896.0
sg17
F0.0
sg18
F0.0
sg19
F1034346.0
sg20
F116335.0
sg21
F0.0
sg22
F0.0
sg23
F465357.0
sg24
F0.0
sg25
F0.0
sg26
F0.0
sg27
F0.0
sg28
F1034346.0
sg29
F0.0
ssg1
(g5
S'I\x00\x00\x00\x00\x00\x00\x00'
p318
tp319
Rp320
(dp321
g12
F271442.0
sg13
F8305.0
sg14
F0.030222757375075255
sg15
F0.021271579195555588
sg16
F3471141.0
sg17
F0.441782059000602
sg18
F3100000.0
sg19
F547143.0
sg20
F5774.0
sg21
F81042.0
sg22
F1728.0
sg23
F93925.0
sg24
F194.0
sg25
F0.11226851851851852
sg26
F0.0
sg27
F3669.0
sg28
F466101.0
sg29
F251.0
ssg1
(g5
S'J\x00\x00\x00\x00\x00\x00\x00'
p322
tp323
Rp324
(dp325
g12
F309946.0
sg13
F2374.0
sg14
F0.02232518955349621
sg15
F0.40980364321526974
sg16
F1587421.0
sg17
F0.9566133108677338
sg18
F700000.0
sg19
F1920055.0
sg20
F127017.0
sg21
F671737.0
sg22
F61.0
sg23
F150458.0
sg24
F15.0
sg25
F0.2459016393442623
sg26
F1.0
sg27
F2271.0
sg28
F1248318.0
sg29
F53.0
ssg1
(g5
S'K\x00\x00\x00\x00\x00\x00\x00'
p326
tp327
Rp328
(dp329
g12
F224305.0
sg13
F0.0
sg14
F0.0
sg15
F0.5266668152738458
sg16
F2652612.0
sg17
F0.0
sg18
F800000.0
sg19
F985032.0
sg20
F118134.0
sg21
F0.0
sg22
F0.0
sg23
F907502.0
sg24
F0.0
sg25
F0.0
sg26
F1.0
sg27
F0.0
sg28
F985032.0
sg29
F0.0
ssg1
(g5
S'L\x00\x00\x00\x00\x00\x00\x00'
p330
tp331
Rp332
(dp333
g12
F339288.0
sg13
F7259.0
sg14
F0.07273729163796666
sg15
F0.1460028058758341
sg16
F10425757.0
sg17
F0.5458052073288332
sg18
F8000000.0
sg19
F5167144.0
sg20
F49537.0
sg21
F4158995.0
sg22
F2585.0
sg23
F1552.0
sg24
F411.0
sg25
F0.15899419729206962
sg26
F0.0
sg27
F3962.0
sg28
F1008149.0
sg29
F528.0
ssg1
(g5
S'M\x00\x00\x00\x00\x00\x00\x00'
p334
tp335
Rp336
(dp337
g12
F1072321.0
sg13
F4273.0
sg14
F0.028785396676807865
sg15
F0.09309898808285952
sg16
F103559793.0
sg17
F0.5642405803884858
sg18
F7000000.0
sg19
F49110078.0
sg20
F99832.0
sg21
F34348384.0
sg22
F36.0
sg23
F10359729.0
sg24
F16.0
sg25
F0.4444444444444444
sg26
F1.0
sg27
F2411.0
sg28
F14761694.0
sg29
F123.0
ssg1
(g5
S'N\x00\x00\x00\x00\x00\x00\x00'
p338
tp339
Rp340
(dp341
g12
F273746.0
sg13
F2822.0
sg14
F0.02374202693125443
sg15
F0.0
sg16
F2664228.0
sg17
F0.9468462083628633
sg18
F1000000.0
sg19
F360528.0
sg20
F0.0
sg21
F0.0
sg22
F63.0
sg23
F3083.0
sg24
F14.0
sg25
F0.2222222222222222
sg26
F0.0
sg27
F2672.0
sg28
F360528.0
sg29
F67.0
ssg1
(g5
S'O\x00\x00\x00\x00\x00\x00\x00'
p342
tp343
Rp344
(dp345
g12
F0.0
sg13
F0.0
sg14
F0.0
sg15
F0.0
sg16
F87492.0
sg17
F0.0
sg18
F0.0
sg19
F412878.0
sg20
F0.0
sg21
F412878.0
sg22
F0.0
sg23
F0.0
sg24
F0.0
sg25
F0.0
sg26
F0.0
sg27
F0.0
sg28
F0.0
sg29
F0.0
ssg1
(g5
S'P\x00\x00\x00\x00\x00\x00\x00'
p346
tp347
Rp348
(dp349
g12
F0.0
sg13
F952.0
sg14
F0.01050420168067227
sg15
F0.0
sg16
F0.0
sg17
F0.7762605042016807
sg18
F0.0
sg19
F850477.0
sg20
F0.0
sg21
F850477.0
sg22
F26.0
sg23
F0.0
sg24
F0.0
sg25
F0.0
sg26
F0.0
sg27
F739.0
sg28
F0.0
sg29
F10.0
ssg1
(g5
S'Q\x00\x00\x00\x00\x00\x00\x00'
p350
tp351
Rp352
(dp353
g12
F236457.0
sg13
F0.0
sg14
F0.0
sg15
F0.2441331827774183
sg16
F875889.0
sg17
F0.0
sg18
F200000.0
sg19
F3064208.0
sg20
F57727.0
sg21
F2549361.0
sg22
F0.0
sg23
F2630.0
sg24
F0.0
sg25
F0.0
sg26
F0.0
sg27
F0.0
sg28
F514847.0
sg29
F0.0
ssg1
(g5
S'R\x00\x00\x00\x00\x00\x00\x00'
p354
tp355
Rp356
(dp357
g12
F0.0
sg13
F0.0
sg14
F0.0
sg15
F0.0
sg16
F0.0
sg17
F0.0
sg18
F0.0
sg19
F0.0
sg20
F0.0
sg21
F0.0
sg22
F0.0
sg23
F0.0
sg24
F0.0
sg25
F0.0
sg26
F0.0
sg27
F0.0
sg28
F0.0
sg29
F0.0
ssg1
(g5
S'S\x00\x00\x00\x00\x00\x00\x00'
p358
tp359
Rp360
(dp361
g12
F0.0
sg13
F0.0
sg14
F0.0
sg15
F0.0
sg16
F0.0
sg17
F0.0
sg18
F0.0
sg19
F372205.0
sg20
F0.0
sg21
F372205.0
sg22
F0.0
sg23
F0.0
sg24
F0.0
sg25
F0.0
sg26
F0.0
sg27
F0.0
sg28
F153686.0
sg29
F0.0
ssg1
(g5
S'T\x00\x00\x00\x00\x00\x00\x00'
p362
tp363
Rp364
(dp365
g12
F349487.0
sg13
F1522.0
sg14
F0.005256241787122208
sg15
F0.023494436130671526
sg16
F8407016.0
sg17
F0.31340341655716164
sg18
F0.0
sg19
F2070306.0
sg20
F8211.0
sg21
F2070306.0
sg22
F230.0
sg23
F2818454.0
sg24
F0.0
sg25
F0.0
sg26
F0.0
sg27
F477.0
sg28
F0.0
sg29
F8.0
ssg1
(g5
S'U\x00\x00\x00\x00\x00\x00\x00'
p366
tp367
Rp368
(dp369
g12
F0.0
sg13
F1433.0
sg14
F0.017445917655268667
sg15
F0.0
sg16
F0.0
sg17
F0.35450104675505933
sg18
F0.0
sg19
F758931.0
sg20
F0.0
sg21
F664375.0
sg22
F215.0
sg23
F0.0
sg24
F2.0
sg25
F0.009302325581395349
sg26
F0.0
sg27
F508.0
sg28
F94556.0
sg29
F25.0
ssg1
(g5
S'V\x00\x00\x00\x00\x00\x00\x00'
p370
tp371
Rp372
(dp373
g12
F263413.0
sg13
F1744.0
sg14
F0.02981651376146789
sg15
F0.8684575172827461
sg16
F1318763.0
sg17
F0.8423165137614679
sg18
F900000.0
sg19
F947861.0
sg20
F228763.0
sg21
F506765.0
sg22
F49.0
sg23
F51587.0
sg24
F0.0
sg25
F0.0
sg26
F0.0
sg27
F1469.0
sg28
F441096.0
sg29
F52.0
ssg1
(g5
S'W\x00\x00\x00\x00\x00\x00\x00'
p374
tp375
Rp376
(dp377
g12
F365038.0
sg13
F3329.0
sg14
F0.02763592670471613
sg15
F0.22289186331286057
sg16
F2101364.0
sg17
F0.657554821267648
sg18
F1100000.0
sg19
F3101279.0
sg20
F81364.0
sg21
F1623010.0
sg22
F2742.0
sg23
F540.0
sg24
F194.0
sg25
F0.07075127644055434
sg26
F0.0
sg27
F2189.0
sg28
F1478269.0
sg29
F92.0
ssg1
(g5
S'X\x00\x00\x00\x00\x00\x00\x00'
p378
tp379
Rp380
(dp381
g12
F0.0
sg13
F894.0
sg14
F0.06040268456375839
sg15
F0.0
sg16
F0.0
sg17
F0.8053691275167785
sg18
F0.0
sg19
F1691366.0
sg20
F0.0
sg21
F757301.0
sg22
F13.0
sg23
F0.0
sg24
F1.0
sg25
F0.07692307692307693
sg26
F0.0
sg27
F720.0
sg28
F934065.0
sg29
F54.0
ssg1
(g5
S'Y\x00\x00\x00\x00\x00\x00\x00'
p382
tp383
Rp384
(dp385
g12
F370448.0
sg13
F2355.0
sg14
F0.024628450106157114
sg15
F0.3701140241005485
sg16
F4099771.0
sg17
F0.9460721868365181
sg18
F2600000.0
sg19
F1662855.0
sg20
F137108.0
sg21
F1104054.0
sg22
F48.0
sg23
F297353.0
sg24
F26.0
sg25
F0.5416666666666666
sg26
F0.0
sg27
F2228.0
sg28
F558801.0
sg29
F58.0
ssg1
(g5
S'Z\x00\x00\x00\x00\x00\x00\x00'
p386
tp387
Rp388
(dp389
g12
F0.0
sg13
F0.0
sg14
F0.0
sg15
F0.0
sg16
F148.0
sg17
F0.0
sg18
F0.0
sg19
F0.0
sg20
F148.0
sg21
F0.0
sg22
F0.0
sg23
F0.0
sg24
F0.0
sg25
F0.0
sg26
F0.0
sg27
F0.0
sg28
F0.0
sg29
F0.0
ssg1
(g5
S'[\x00\x00\x00\x00\x00\x00\x00'
p390
tp391
Rp392
(dp393
g12
F365788.0
sg13
F807.0
sg14
F0.04708798017348203
sg15
F0.25779686594420814
sg16
F1061827.0
sg17
F0.8698884758364313
sg18
F600000.0
sg19
F585062.0
sg20
F94299.0
sg21
F0.0
sg22
F29.0
sg23
F1740.0
sg24
F1.0
sg25
F0.034482758620689655
sg26
F0.0
sg27
F702.0
sg28
F585062.0
sg29
F38.0
ssg1
(g5
S'\\\x00\x00\x00\x00\x00\x00\x00'
p394
tp395
Rp396
(dp397
g12
F0.0
sg13
F0.0
sg14
F0.0
sg15
F0.0
sg16
F2151.0
sg17
F0.0
sg18
F0.0
sg19
F0.0
sg20
F2151.0
sg21
F0.0
sg22
F0.0
sg23
F0.0
sg24
F0.0
sg25
F0.0
sg26
F0.0
sg27
F0.0
sg28
F0.0
sg29
F0.0
ssg1
(g5
S']\x00\x00\x00\x00\x00\x00\x00'
p398
tp399
Rp400
(dp401
g12
F0.0
sg13
F232.0
sg14
F0.0
sg15
F0.0
sg16
F1848227.0
sg17
F0.09482758620689655
sg18
F0.0
sg19
F955873.0
sg20
F0.0
sg21
F493489.0
sg22
F28.0
sg23
F0.0
sg24
F0.0
sg25
F0.0
sg26
F0.0
sg27
F22.0
sg28
F462384.0
sg29
F0.0
ssg1
(g5
S'^\x00\x00\x00\x00\x00\x00\x00'
p402
tp403
Rp404
(dp405
g12
F0.0
sg13
F672.0
sg14
F0.0
sg15
F0.0
sg16
F0.0
sg17
F0.18898809523809523
sg18
F0.0
sg19
F221141.0
sg20
F0.0
sg21
F59539.0
sg22
F19.0
sg23
F0.0
sg24
F0.0
sg25
F0.0
sg26
F0.0
sg27
F127.0
sg28
F161602.0
sg29
F0.0
ssg1
(g5
S'_\x00\x00\x00\x00\x00\x00\x00'
p406
tp407
Rp408
(dp409
g12
F267093.0
sg13
F0.0
sg14
F0.0
sg15
F0.13110789125884992
sg16
F628522.0
sg17
F0.0
sg18
F325000.0
sg19
F208510.0
sg20
F35018.0
sg21
F0.0
sg22
F0.0
sg23
F1411.0
sg24
F0.0
sg25
F0.0
sg26
F0.0
sg27
F0.0
sg28
F208510.0
sg29
F0.0
ssg1
(g5
S'`\x00\x00\x00\x00\x00\x00\x00'
p410
tp411
Rp412
(dp413
g12
F251654.0
sg13
F136.0
sg14
F0.08823529411764706
sg15
F0.0
sg16
F3202070.0
sg17
F0.8382352941176471
sg18
F1100000.0
sg19
F1416848.0
sg20
F0.0
sg21
F1056320.0
sg22
F16.0
sg23
F947.0
sg24
F0.0
sg25
F0.0
sg26
F0.0
sg27
F114.0
sg28
F360528.0
sg29
F12.0
ssg1
(g5
S'a\x00\x00\x00\x00\x00\x00\x00'
p414
tp415
Rp416
(dp417
g12
F229284.0
sg13
F2192.0
sg14
F0.005018248175182482
sg15
F0.25112960346120966
sg16
F812194.0
sg17
F0.1802007299270073
sg18
F400000.0
sg19
F597461.0
sg20
F57580.0
sg21
F400478.0
sg22
F45.0
sg23
F330.0
sg24
F2.0
sg25
F0.044444444444444446
sg26
F0.0
sg27
F395.0
sg28
F196983.0
sg29
F11.0
ssg1
(g5
S'b\x00\x00\x00\x00\x00\x00\x00'
p418
tp419
Rp420
(dp421
g12
F0.0
sg13
F0.0
sg14
F0.0
sg15
F0.0
sg16
F774401.0
sg17
F0.0
sg18
F0.0
sg19
F368705.0
sg20
F0.0
sg21
F0.0
sg22
F0.0
sg23
F0.0
sg24
F0.0
sg25
F0.0
sg26
F0.0
sg27
F0.0
sg28
F463261.0
sg29
F0.0
ssg1
(g5
S'c\x00\x00\x00\x00\x00\x00\x00'
p422
tp423
Rp424
(dp425
g12
F329078.0
sg13
F1184.0
sg14
F0.016891891891891893
sg15
F0.19384765921757152
sg16
F1321557.0
sg17
F0.722972972972973
sg18
F750000.0
sg19
F2606763.0
sg20
F63791.0
sg21
F1637034.0
sg22
F52.0
sg23
F972.0
sg24
F15.0
sg25
F0.28846153846153844
sg26
F0.0
sg27
F856.0
sg28
F969729.0
sg29
F20.0
ssg1
(g5
S'd\x00\x00\x00\x00\x00\x00\x00'
p426
tp427
Rp428
(dp429
g12
F94941.0
sg13
F0.0
sg14
F0.0
sg15
F0.19837583341232976
sg16
F249787.0
sg17
F0.0
sg18
F0.0
sg19
F7307594.0
sg20
F18834.0
sg21
F5266578.0
sg22
F0.0
sg23
F176.0
sg24
F0.0
sg25
F0.0
sg26
F0.0
sg27
F0.0
sg28
F2041016.0
sg29
F0.0
ssg1
(g5
S'e\x00\x00\x00\x00\x00\x00\x00'
p430
tp431
Rp432
(dp433
g12
F261879.0
sg13
F0.0
sg14
F0.0
sg15
F0.1223733098110196
sg16
F3123383.0
sg17
F0.0
sg18
F1000000.0
sg19
F23817930.0
sg20
F32047.0
sg21
F15364167.0
sg22
F0.0
sg23
F1829457.0
sg24
F0.0
sg25
F0.0
sg26
F0.0
sg27
F0.0
sg28
F8453763.0
sg29
F0.0
ssg1
(g5
S'f\x00\x00\x00\x00\x00\x00\x00'
p434
tp435
Rp436
(dp437
g12
F0.0
sg13
F0.0
sg14
F0.0
sg15
F0.0
sg16
F27942.0
sg17
F0.0
sg18
F0.0
sg19
F0.0
sg20
F27942.0
sg21
F0.0
sg22
F0.0
sg23
F0.0
sg24
F0.0
sg25
F0.0
sg26
F0.0
sg27
F0.0
sg28
F0.0
sg29
F0.0
ssg1
(g5
S'g\x00\x00\x00\x00\x00\x00\x00'
p438
tp439
Rp440
(dp441
g12
F655037.0
sg13
F898.0
sg14
F0.0077951002227171495
sg15
F0.04832246117394895
sg16
F1386690.0
sg17
F0.8106904231625836
sg18
F300000.0
sg19
F28798.0
sg20
F31653.0
sg21
F28798.0
sg22
F67.0
sg23
F0.0
sg24
F0.0
sg25
F0.0
sg26
F0.0
sg27
F728.0
sg28
F0.0
sg29
F7.0
ssg1
(g5
S'h\x00\x00\x00\x00\x00\x00\x00'
p442
tp443
Rp444
(dp445
g12
F197091.0
sg13
F1238.0
sg14
F0.049273021001615507
sg15
F0.21846253760953063
sg16
F1737629.0
sg17
F0.5993537964458805
sg18
F400000.0
sg19
F880290.0
sg20
F43057.0
sg21
F880290.0
sg22
F222.0
sg23
F778.0
sg24
F48.0
sg25
F0.21621621621621623
sg26
F0.0
sg27
F742.0
sg28
F409554.0
sg29
F61.0
ssg1
(g5
S'i\x00\x00\x00\x00\x00\x00\x00'
p446
tp447
Rp448
(dp449
g12
F0.0
sg13
F58.0
sg14
F0.0
sg15
F0.0
sg16
F0.0
sg17
F0.05172413793103448
sg18
F0.0
sg19
F47304.0
sg20
F0.0
sg21
F0.0
sg22
F16.0
sg23
F0.0
sg24
F1.0
sg25
F0.0625
sg26
F0.0
sg27
F3.0
sg28
F47304.0
sg29
F0.0
ssg1
(g5
S'j\x00\x00\x00\x00\x00\x00\x00'
p450
tp451
Rp452
(dp453
g12
F0.0
sg13
F653.0
sg14
F0.0
sg15
F0.0
sg16
F0.0
sg17
F0.018376722817764167
sg18
F0.0
sg19
F0.0
sg20
F0.0
sg21
F0.0
sg22
F26.0
sg23
F0.0
sg24
F0.0
sg25
F0.0
sg26
F0.0
sg27
F12.0
sg28
F0.0
sg29
F0.0
ssg1
(g5
S'k\x00\x00\x00\x00\x00\x00\x00'
p454
tp455
Rp456
(dp457
g12
F0.0
sg13
F0.0
sg14
F0.0
sg15
F0.0
sg16
F564348.0
sg17
F0.0
sg18
F0.0
sg19
F1095040.0
sg20
F0.0
sg21
F886231.0
sg22
F0.0
sg23
F0.0
sg24
F0.0
sg25
F0.0
sg26
F0.0
sg27
F0.0
sg28
F208809.0
sg29
F0.0
ssg1
(g5
S'l\x00\x00\x00\x00\x00\x00\x00'
p458
tp459
Rp460
(dp461
g12
F96840.0
sg13
F1671.0
sg14
F0.12208258527827648
sg15
F0.15168318876497316
sg16
F111529.0
sg17
F0.6361460203470976
sg18
F0.0
sg19
F7890324.0
sg20
F14689.0
sg21
F7509039.0
sg22
F221.0
sg23
F0.0
sg24
F49.0
sg25
F0.22171945701357465
sg26
F0.0
sg27
F1063.0
sg28
F381285.0
sg29
F204.0
ssg1
(g5
S'm\x00\x00\x00\x00\x00\x00\x00'
p462
tp463
Rp464
(dp465
g12
F76399.0
sg13
F0.0
sg14
F0.0
sg15
F0.1100668856922211
sg16
F394475.0
sg17
F0.0
sg18
F100000.0
sg19
F4221891.0
sg20
F8409.0
sg21
F4160672.0
sg22
F0.0
sg23
F202052.0
sg24
F0.0
sg25
F0.0
sg26
F0.0
sg27
F0.0
sg28
F201483.0
sg29
F0.0
ssg1
(g5
S'n\x00\x00\x00\x00\x00\x00\x00'
p466
tp467
Rp468
(dp469
g12
F420636.0
sg13
F905.0
sg14
F0.04640883977900553
sg15
F0.11161669471942487
sg16
F505050.0
sg17
F0.9546961325966851
sg18
F1750000.0
sg19
F22542539.0
sg20
F46950.0
sg21
F19794175.0
sg22
F18.0
sg23
F174839.0
sg24
F4.0
sg25
F0.2222222222222222
sg26
F1.0
sg27
F864.0
sg28
F2748364.0
sg29
F42.0
ssg1
(g5
S'o\x00\x00\x00\x00\x00\x00\x00'
p470
tp471
Rp472
(dp473
g12
F249201.0
sg13
F1328.0
sg14
F0.02635542168674699
sg15
F0.13351070019783226
sg16
F1099100.0
sg17
F0.947289156626506
sg18
F700000.0
sg19
F1918887.0
sg20
F33271.0
sg21
F1635238.0
sg22
F82.0
sg23
F1950.0
sg24
F48.0
sg25
F0.5853658536585366
sg26
F1.0
sg27
F1258.0
sg28
F283649.0
sg29
F35.0
ssg1
(g5
S'p\x00\x00\x00\x00\x00\x00\x00'
p474
tp475
Rp476
(dp477
g12
F0.0
sg13
F0.0
sg14
F0.0
sg15
F0.0
sg16
F3750.0
sg17
F0.0
sg18
F0.0
sg19
F0.0
sg20
F0.0
sg21
F0.0
sg22
F0.0
sg23
F0.0
sg24
F0.0
sg25
F0.0
sg26
F0.0
sg27
F0.0
sg28
F0.0
sg29
F0.0
ssg1
(g5
S'q\x00\x00\x00\x00\x00\x00\x00'
p478
tp479
Rp480
(dp481
g12
F0.0
sg13
F0.0
sg14
F0.0
sg15
F0.0
sg16
F0.0
sg17
F0.0
sg18
F0.0
sg19
F759557.0
sg20
F0.0
sg21
F759557.0
sg22
F0.0
sg23
F0.0
sg24
F0.0
sg25
F0.0
sg26
F0.0
sg27
F0.0
sg28
F0.0
sg29
F0.0
ssg1
(g5
S'r\x00\x00\x00\x00\x00\x00\x00'
p482
tp483
Rp484
(dp485
g12
F304110.0
sg13
F3221.0
sg14
F0.029183483390251473
sg15
F0.5885337542336655
sg16
F3038702.0
sg17
F0.5371002794163303
sg18
F2000000.0
sg19
F2072035.0
sg20
F178979.0
sg21
F1441898.0
sg22
F2681.0
sg23
F1191.0
sg24
F83.0
sg25
F0.030958597538232
sg26
F0.0
sg27
F1730.0
sg28
F630137.0
sg29
F94.0
ssg1
(g5
S's\x00\x00\x00\x00\x00\x00\x00'
p486
tp487
Rp488
(dp489
g12
F269076.0
sg13
F15149.0
sg14
F0.0048848108786058485
sg15
F0.5120003270451471
sg16
F1057548.0
sg17
F0.29883160604660375
sg18
F650000.0
sg19
F987001.0
sg20
F137767.0
sg21
F607837.0
sg22
F1215.0
sg23
F705.0
sg24
F65.0
sg25
F0.053497942386831275
sg26
F0.0
sg27
F4527.0
sg28
F379164.0
sg29
F74.0
ssg1
(g5
S't\x00\x00\x00\x00\x00\x00\x00'
p490
tp491
Rp492
(dp493
g12
F248146.0
sg13
F3136.0
sg14
F0.007653061224489796
sg15
F0.46882480475204114
sg16
F1576511.0
sg17
F0.7898596938775511
sg18
F600000.0
sg19
F494136.0
sg20
F116337.0
sg21
F281073.0
sg22
F136.0
sg23
F2401.0
sg24
F6.0
sg25
F0.04411764705882353
sg26
F0.0
sg27
F2477.0
sg28
F213063.0
sg29
F24.0
ssg1
(g5
S'u\x00\x00\x00\x00\x00\x00\x00'
p494
tp495
Rp496
(dp497
g12
F211844.0
sg13
F225.0
sg14
F0.057777777777777775
sg15
F0.10802288476426049
sg16
F2003885.0
sg17
F0.40444444444444444
sg18
F200000.0
sg19
F2493616.0
sg20
F22884.0
sg21
F1624396.0
sg22
F39.0
sg23
F1573324.0
sg24
F14.0
sg25
F0.358974358974359
sg26
F1.0
sg27
F91.0
sg28
F869220.0
sg29
F13.0
ssg1
(g5
S'v\x00\x00\x00\x00\x00\x00\x00'
p498
tp499
Rp500
(dp501
g12
F0.0
sg13
F613.0
sg14
F0.0636215334420881
sg15
F0.0
sg16
F0.0
sg17
F0.9510603588907015
sg18
F0.0
sg19
F1832468.0
sg20
F0.0
sg21
F1426469.0
sg22
F25.0
sg23
F0.0
sg24
F18.0
sg25
F0.72
sg26
F0.0
sg27
F583.0
sg28
F405999.0
sg29
F39.0
ssg1
(g5
S'w\x00\x00\x00\x00\x00\x00\x00'
p502
tp503
Rp504
(dp505
g12
F428780.0
sg13
F3187.0
sg14
F0.008785691873235017
sg15
F0.0
sg16
F4335388.0
sg17
F0.6598682146219015
sg18
F1500000.0
sg19
F3128982.0
sg20
F0.0
sg21
F1835558.0
sg22
F92.0
sg23
F1852186.0
sg24
F23.0
sg25
F0.25
sg26
F0.0
sg27
F2103.0
sg28
F1293424.0
sg29
F28.0
ssg1
(g5
S'x\x00\x00\x00\x00\x00\x00\x00'
p506
tp507
Rp508
(dp509
g12
F1111258.0
sg13
F3627.0
sg14
F0.0242624758753791
sg15
F0.026398910064089526
sg16
F8682716.0
sg17
F0.5629997242900469
sg18
F5600000.0
sg19
F26093672.0
sg20
F29336.0
sg21
F19250000.0
sg22
F108.0
sg23
F22122.0
sg24
F30.0
sg25
F0.2777777777777778
sg26
F1.0
sg27
F2042.0
sg28
F6843672.0
sg29
F88.0
ssg1
(g5
S'y\x00\x00\x00\x00\x00\x00\x00'
p510
tp511
Rp512
(dp513
g12
F239502.0
sg13
F0.0
sg14
F0.0
sg15
F0.06895140750390394
sg16
F1112087.0
sg17
F0.0
sg18
F500000.0
sg19
F511734.0
sg20
F16514.0
sg21
F0.0
sg22
F0.0
sg23
F356071.0
sg24
F0.0
sg25
F0.0
sg26
F0.0
sg27
F0.0
sg28
F511734.0
sg29
F0.0
ssg1
(g5
S'z\x00\x00\x00\x00\x00\x00\x00'
p514
tp515
Rp516
(dp517
g12
F162779.0
sg13
F0.0
sg14
F0.0
sg15
F0.0
sg16
F999356.0
sg17
F0.0
sg18
F100000.0
sg19
F1362375.0
sg20
F0.0
sg21
F1362375.0
sg22
F0.0
sg23
F162.0
sg24
F0.0
sg25
F0.0
sg26
F0.0
sg27
F0.0
sg28
F0.0
sg29
F0.0
ssg1
(g5
S'{\x00\x00\x00\x00\x00\x00\x00'
p518
tp519
Rp520
(dp521
g12
F257486.0
sg13
F2647.0
sg14
F0.013978088401964487
sg15
F0.0
sg16
F1545059.0
sg17
F0.9690215338118625
sg18
F700000.0
sg19
F698920.0
sg20
F0.0
sg21
F0.0
sg22
F38.0
sg23
F111122.0
sg24
F13.0
sg25
F0.34210526315789475
sg26
F0.0
sg27
F2565.0
sg28
F698920.0
sg29
F37.0
ssg1
(g5
S'|\x00\x00\x00\x00\x00\x00\x00'
p522
tp523
Rp524
(dp525
g12
F265214.0
sg13
F533.0
sg14
F0.0
sg15
F0.0
sg16
F1092663.0
sg17
F0.5628517823639775
sg18
F600000.0
sg19
F3745048.0
sg20
F0.0
sg21
F3181250.0
sg22
F29.0
sg23
F0.0
sg24
F0.0
sg25
F0.0
sg26
F0.0
sg27
F300.0
sg28
F563798.0
sg29
F0.0
ssg1
(g5
S'}\x00\x00\x00\x00\x00\x00\x00'
p526
tp527
Rp528
(dp529
g12
F222093.0
sg13
F266.0
sg14
F0.0
sg15
F0.20777332018568798
sg16
F911453.0
sg17
F0.2744360902255639
sg18
F0.0
sg19
F4817796.0
sg20
F46145.0
sg21
F4452476.0
sg22
F41.0
sg23
F426629.0
sg24
F0.0
sg25
F0.0
sg26
F0.0
sg27
F73.0
sg28
F365320.0
sg29
F0.0
ssg1
(g5
S'~\x00\x00\x00\x00\x00\x00\x00'
p530
tp531
Rp532
(dp533
g12
F247338.0
sg13
F460.0
sg14
F0.021739130434782608
sg15
F0.0
sg16
F399393.0
sg17
F0.8239130434782609
sg18
F300000.0
sg19
F1168042.0
sg20
F0.0
sg21
F591250.0
sg22
F19.0
sg23
F152055.0
sg24
F11.0
sg25
F0.5789473684210527
sg26
F0.0
sg27
F379.0
sg28
F576792.0
sg29
F10.0
ssg1
(g5
S'\x7f\x00\x00\x00\x00\x00\x00\x00'
p534
tp535
Rp536
(dp537
g12
F288589.0
sg13
F111.0
sg14
F0.10810810810810811
sg15
F0.18407493009089052
sg16
F1130461.0
sg17
F0.36936936936936937
sg18
F788750.0
sg19
F0.0
sg20
F53122.0
sg21
F0.0
sg22
F18.0
sg23
F0.0
sg24
F0.0
sg25
F0.0
sg26
F0.0
sg27
F41.0
sg28
F0.0
sg29
F12.0
ssg1
(g5
S'\x80\x00\x00\x00\x00\x00\x00\x00'
p538
tp539
Rp540
(dp541
g12
F0.0
sg13
F0.0
sg14
F0.0
sg15
F0.0
sg16
F228656.0
sg17
F0.0
sg18
F0.0
sg19
F0.0
sg20
F228656.0
sg21
F0.0
sg22
F0.0
sg23
F0.0
sg24
F0.0
sg25
F0.0
sg26
F0.0
sg27
F0.0
sg28
F0.0
sg29
F0.0
ssg1
(g5
S'\x81\x00\x00\x00\x00\x00\x00\x00'
p542
tp543
Rp544
(dp545
g12
F0.0
sg13
F0.0
sg14
F0.0
sg15
F0.0
sg16
F213071.0
sg17
F0.0
sg18
F0.0
sg19
F0.0
sg20
F103773.0
sg21
F0.0
sg22
F0.0
sg23
F0.0
sg24
F0.0
sg25
F0.0
sg26
F0.0
sg27
F0.0
sg28
F0.0
sg29
F0.0
ssg1
(g5
S'\x82\x00\x00\x00\x00\x00\x00\x00'
p546
tp547
Rp548
(dp549
g12
F357091.0
sg13
F671.0
sg14
F0.02533532041728763
sg15
F0.1426415115474767
sg16
F1798780.0
sg17
F0.3204172876304024
sg18
F850000.0
sg19
F5898997.0
sg20
F50936.0
sg21
F4346544.0
sg22
F146.0
sg23
F2.0
sg24
F0.0
sg25
F0.0
sg26
F0.0
sg27
F215.0
sg28
F1552453.0
sg29
F17.0
ssg1
(g5
S'\x83\x00\x00\x00\x00\x00\x00\x00'
p550
tp551
Rp552
(dp553
g12
F0.0
sg13
F0.0
sg14
F0.0
sg15
F0.0
sg16
F87410.0
sg17
F0.0
sg18
F0.0
sg19
F1030329.0
sg20
F33785.0
sg21
F1030329.0
sg22
F0.0
sg23
F0.0
sg24
F0.0
sg25
F0.0
sg26
F0.0
sg27
F0.0
sg28
F0.0
sg29
F0.0
ssg1
(g5
S'\x84\x00\x00\x00\x00\x00\x00\x00'
p554
tp555
Rp556
(dp557
g12
F259996.0
sg13
F400.0
sg14
F0.055
sg15
F0.0
sg16
F1034395.0
sg17
F0.8425
sg18
F325000.0
sg19
F2056427.0
sg20
F0.0
sg21
F1668260.0
sg22
F30.0
sg23
F1425.0
sg24
F7.0
sg25
F0.23333333333333334
sg26
F0.0
sg27
F337.0
sg28
F388167.0
sg29
F22.0
ssg1
(g5
S'\x85\x00\x00\x00\x00\x00\x00\x00'
p558
tp559
Rp560
(dp561
g12
F63744.0
sg13
F0.0
sg14
F0.0
sg15
F0.8137236445783133
sg16
F762135.0
sg17
F0.0
sg18
F0.0
sg19
F384930.0
sg20
F51870.0
sg21
F0.0
sg22
F0.0
sg23
F401130.0
sg24
F0.0
sg25
F0.0
sg26
F0.0
sg27
F0.0
sg28
F384930.0
sg29
F0.0
ssg1
(g5
S'\x86\x00\x00\x00\x00\x00\x00\x00'
p562
tp563
Rp564
(dp565
g12
F0.0
sg13
F0.0
sg14
F0.0
sg15
F0.0
sg16
F0.0
sg17
F0.0
sg18
F0.0
sg19
F98718.0
sg20
F0.0
sg21
F98718.0
sg22
F0.0
sg23
F0.0
sg24
F0.0
sg25
F0.0
sg26
F0.0
sg27
F0.0
sg28
F0.0
sg29
F0.0
ssg1
(g5
S'\x87\x00\x00\x00\x00\x00\x00\x00'
p566
tp567
Rp568
(dp569
g12
F510364.0
sg13
F6019.0
sg14
F0.03090214321315833
sg15
F0.11332695879803434
sg16
F4677574.0
sg17
F0.6512709752450573
sg18
F3000000.0
sg19
F6079137.0
sg20
F57838.0
sg21
F3282960.0
sg22
F556.0
sg23
F301026.0
sg24
F24.0
sg25
F0.04316546762589928
sg26
F0.0
sg27
F3920.0
sg28
F2796177.0
sg29
F186.0
ssg1
(g5
S'\x88\x00\x00\x00\x00\x00\x00\x00'
p570
tp571
Rp572
(dp573
g12
F317543.0
sg13
F0.0
sg14
F0.0
sg15
F0.2561952239539212
sg16
F1934359.0
sg17
F0.0
sg18
F450000.0
sg19
F15144123.0
sg20
F81353.0
sg21
F1297049.0
sg22
F0.0
sg23
F1085463.0
sg24
F0.0
sg25
F0.0
sg26
F0.0
sg27
F0.0
sg28
F13847074.0
sg29
F0.0
ssg1
(g5
S'\x89\x00\x00\x00\x00\x00\x00\x00'
p574
tp575
Rp576
(dp577
g12
F0.0
sg13
F0.0
sg14
F0.0
sg15
F0.0
sg16
F84992.0
sg17
F0.0
sg18
F0.0
sg19
F0.0
sg20
F1413.0
sg21
F0.0
sg22
F0.0
sg23
F0.0
sg24
F0.0
sg25
F0.0
sg26
F0.0
sg27
F0.0
sg28
F0.0
sg29
F0.0
ssg1
(g5
S'\x8a\x00\x00\x00\x00\x00\x00\x00'
p578
tp579
Rp580
(dp581
g12
F0.0
sg13
F0.0
sg14
F0.0
sg15
F0.0
sg16
F189583.0
sg17
F0.0
sg18
F0.0
sg19
F0.0
sg20
F0.0
sg21
F0.0
sg22
F0.0
sg23
F189583.0
sg24
F0.0
sg25
F0.0
sg26
F0.0
sg27
F0.0
sg28
F0.0
sg29
F0.0
ssg1
(g5
S'\x8b\x00\x00\x00\x00\x00\x00\x00'
p582
tp583
Rp584
(dp585
g12
F0.0
sg13
F0.0
sg14
F0.0
sg15
F0.0
sg16
F0.0
sg17
F0.0
sg18
F0.0
sg19
F139130.0
sg20
F0.0
sg21
F139130.0
sg22
F0.0
sg23
F0.0
sg24
F0.0
sg25
F0.0
sg26
F0.0
sg27
F0.0
sg28
F0.0
sg29
F0.0
ssg1
(g5
S'\x8c\x00\x00\x00\x00\x00\x00\x00'
p586
tp587
Rp588
(dp589
g12
F158403.0
sg13
F0.0
sg14
F0.0
sg15
F0.3405680447971314
sg16
F360300.0
sg17
F0.0
sg18
F0.0
sg19
F11884758.0
sg20
F53947.0
sg21
F8308552.0
sg22
F0.0
sg23
F147950.0
sg24
F0.0
sg25
F0.0
sg26
F1.0
sg27
F0.0
sg28
F3576206.0
sg29
F0.0
ssg1
(g5
S'\x8d\x00\x00\x00\x00\x00\x00\x00'
p590
tp591
Rp592
(dp593
g12
F0.0
sg13
F0.0
sg14
F0.0
sg15
F0.0
sg16
F55097.0
sg17
F0.0
sg18
F0.0
sg19
F192758.0
sg20
F55097.0
sg21
F192758.0
sg22
F0.0
sg23
F0.0
sg24
F0.0
sg25
F0.0
sg26
F0.0
sg27
F0.0
sg28
F0.0
sg29
F0.0
ss.